target datalayout = "e-m:e-p270:32:32-p271:32:32-p272:64:64-i64:64-i128:128-f80:128-n8:16:32:64-S128"
target triple = "x86_64-pc-linux-gnu"

%"class.cv::Mat" = type { i32, i32, i32, i32, ptr, ptr, ptr, ptr, ptr, ptr, %"struct.cv::MatSize", %"struct.cv::MatStep" }
%"struct.cv::MatSize" = type { ptr }
%"struct.cv::MatStep" = type { ptr, [2 x i64] }
%"class.cv::ximgproc::SparseMatchInterpolator" = type { %"class.cv::Algorithm" }
%"class.cv::Algorithm" = type { ptr }
%"class.cv::ximgproc::RICInterpolatorImpl" = type { %"class.cv::ximgproc::RICInterpolator", i32, %"class.std::vector.16", %"class.cv::Mat", %"class.cv::Mat", %"class.cv::Mat", %"class.cv::Mat", float, i32, float, i32, i32, float, i32, i8, i8, float, float, i8, float, float, i32 }
%"class.cv::ximgproc::RICInterpolator" = type { %"class.cv::ximgproc::SparseMatchInterpolator" }
%"class.std::vector.16" = type { %"struct.std::_Vector_base.17" }
%"struct.std::_Vector_base.17" = type { %"struct.std::_Vector_base<std::vector<cv::ximgproc::node>, std::allocator<std::vector<cv::ximgproc::node>>>::_Vector_impl" }
%"struct.std::_Vector_base<std::vector<cv::ximgproc::node>, std::allocator<std::vector<cv::ximgproc::node>>>::_Vector_impl" = type { %"struct.std::_Vector_base<std::vector<cv::ximgproc::node>, std::allocator<std::vector<cv::ximgproc::node>>>::_Vector_impl_data" }
%"struct.std::_Vector_base<std::vector<cv::ximgproc::node>, std::allocator<std::vector<cv::ximgproc::node>>>::_Vector_impl_data" = type { ptr, ptr, ptr }

; Function Attrs: inlinehint mustprogress nounwind uwtable
define linkonce_odr noundef float @_ZSt3expf(float noundef %0) #13 comdat {
  %2 = alloca float, align 4
  store float %0, ptr %2, align 4, !tbaa !43
  %3 = load float, ptr %2, align 4, !tbaa !43
  %4 = call float @expf(float noundef %3) #3, !tbaa !41
  ret float %4
}

; Function Attrs: mustprogress uwtable
define hidden noundef float @_ZN2cv8ximgproc19RICInterpolatorImpl21GetWeightFromDistanceEf(ptr noundef nonnull align 8 dereferenceable(480) %0, float noundef %1) #4 align 2 {
  %3 = alloca ptr, align 8
  %4 = alloca float, align 4
  store ptr %0, ptr %3, align 8, !tbaa !217
  store float %1, ptr %4, align 4, !tbaa !43
  %5 = load ptr, ptr %3, align 8
  %6 = load float, ptr %4, align 4, !tbaa !43
  %7 = fneg float %6
  %8 = getelementptr inbounds nuw %"class.cv::ximgproc::RICInterpolatorImpl", ptr %5, i32 0, i32 9
  %9 = load float, ptr %8, align 8, !tbaa !227
  %10 = fmul float %9, 1.000000e+03
  %11 = fdiv float %7, %10
  %12 = call noundef float @_ZSt3expf(float noundef %11)
  ret float %12
}