; Function Attrs: mustprogress nofree nounwind willreturn memory(write, argmem: readwrite) uwtable
define hidden noundef float @_ZN2cv8ximgproc19RICInterpolatorImpl21GetWeightFromDistanceEf(ptr noundef nonnull readonly align 8 captures(none) dereferenceable(480) %0, float noundef %1) local_unnamed_addr #19 align 2 {
  %3 = fneg float %1
  %4 = getelementptr inbounds nuw i8, ptr %0, i64 432
  %5 = load float, ptr %4, align 8, !tbaa !262
  %6 = fmul float %5, 1.000000e+03
  %7 = fdiv float %3, %6
  %8 = tail call noundef float @expf(float noundef %7) #31, !tbaa !68
  ret float %8
}